target datalayout = "e-m:e-p270:32:32-p271:32:32-p272:64:64-i64:64-i128:128-f80:128-n8:16:32:64-S128"
target triple = "x86_64-pc-linux-gnu"

@.str.17 = private unnamed_addr constant [64 x i8] c"\0AidasHeat2D_bnd: Heat equation, serial example problem for IDA\0A\00", align 1
@.str.18 = private unnamed_addr constant [60 x i8] c"              Discretized heat equation on 2D unit square.\0A\00", align 1
@.str.19 = private unnamed_addr constant [40 x i8] c"              Zero boundary conditions,\00", align 1
@.str.20 = private unnamed_addr constant [33 x i8] c" polynomial initial conditions.\0A\00", align 1
@.str.21 = private unnamed_addr constant [39 x i8] c"              Mesh dimensions: %d x %d\00", align 1
@.str.22 = private unnamed_addr constant [32 x i8] c"        Total system size: %d\0A\0A\00", align 1
@.str.23 = private unnamed_addr constant [46 x i8] c"Tolerance parameters:  rtol = %g   atol = %g\0A\00", align 1
@.str.24 = private unnamed_addr constant [57 x i8] c"Constraints set to force all solution components >= 0. \0A\00", align 1
@.str.25 = private unnamed_addr constant [44 x i8] c"Linear solver: BAND, banded direct solver \0A\00", align 1
@.str.26 = private unnamed_addr constant [60 x i8] c"       difference quotient Jacobian, half-bandwidths = %d \0A\00", align 1
@.str.27 = private unnamed_addr constant [51 x i8] c"IDACalcIC called with input boundary values = %g \0A\00", align 1
@.str.28 = private unnamed_addr constant [52 x i8] c"\0A   Output Summary (umax = max-norm of solution) \0A\0A\00", align 1
@.str.29 = private unnamed_addr constant [65 x i8] c"  time       umax     k  nst  nni  nje   nre   nreLS    h      \0A\00", align 1
@.str.30 = private unnamed_addr constant [65 x i8] c" .  .  .  .  .  .  .  .  .  .  .  .  .  .  .  .  .  .  .  .  . \0A\00", align 1

; Function Attrs: nounwind uwtable
define internal void @PrintHeader(double noundef %0, double noundef %1) #0 {
  %3 = alloca double, align 8
  %4 = alloca double, align 8
  store double %0, ptr %3, align 8, !tbaa !24
  store double %1, ptr %4, align 8, !tbaa !24
  %5 = call i32 (ptr, ...) @printf(ptr noundef @.str.17)
  %6 = call i32 (ptr, ...) @printf(ptr noundef @.str.18)
  %7 = call i32 (ptr, ...) @printf(ptr noundef @.str.19)
  %8 = call i32 (ptr, ...) @printf(ptr noundef @.str.20)
  %9 = call i32 (ptr, ...) @printf(ptr noundef @.str.21, i32 noundef 10, i32 noundef 10)
  %10 = call i32 (ptr, ...) @printf(ptr noundef @.str.22, i32 noundef 100)
  %11 = load double, ptr %3, align 8, !tbaa !24
  %12 = load double, ptr %4, align 8, !tbaa !24
  %13 = call i32 (ptr, ...) @printf(ptr noundef @.str.23, double noundef %11, double noundef %12)
  %14 = call i32 (ptr, ...) @printf(ptr noundef @.str.24)
  %15 = call i32 (ptr, ...) @printf(ptr noundef @.str.25)
  %16 = call i32 (ptr, ...) @printf(ptr noundef @.str.26, i32 noundef 10)
  %17 = call i32 (ptr, ...) @printf(ptr noundef @.str.27, double noundef 1.000000e-01)
  %18 = call i32 (ptr, ...) @printf(ptr noundef @.str.28)
  %19 = call i32 (ptr, ...) @printf(ptr noundef @.str.29)
  %20 = call i32 (ptr, ...) @printf(ptr noundef @.str.30)
  ret void
}